target datalayout = "e-m:e-p270:32:32-p271:32:32-p272:64:64-i64:64-i128:128-f80:128-n8:16:32:64-S128"
target triple = "x86_64-pc-linux-gnu"

%struct.redisObject = type { i32, i32, ptr }
%struct.sdshdr8 = type { i8, i8, i8, [0 x i8] }
%struct.sdshdr16 = type <{ i16, i16, i8, [0 x i8] }>
%struct.sdshdr32 = type <{ i32, i32, i8, [0 x i8] }>
%struct.sdshdr64 = type <{ i64, i64, i8, [0 x i8] }>
%struct.setTypeIterator = type { ptr, i32, i32, ptr, ptr }
%struct.dict = type { ptr, [2 x ptr], [2 x i64], i64, i16, [2 x i8], i16, [0 x ptr] }

@.str.1 = private unnamed_addr constant [8 x i8] c"t_set.c\00", align 1
@.str.3 = private unnamed_addr constant [21 x i8] c"Unknown set encoding\00", align 1
@.str.8 = private unnamed_addr constant [19 x i8] c"o->type == OBJ_SET\00", align 1

; Function Attrs: inlinehint nounwind uwtable
define internal i64 @sdslen(ptr noundef %0) #3 {
  %2 = alloca i64, align 8
  %3 = alloca ptr, align 8
  %4 = alloca i8, align 1
  %5 = alloca i32, align 4
  store ptr %0, ptr %3, align 8, !tbaa !5
  call void @llvm.lifetime.start.p0(i64 1, ptr %4) #10
  %6 = load ptr, ptr %3, align 8, !tbaa !5
  %7 = getelementptr inbounds i8, ptr %6, i64 -1
  %8 = load i8, ptr %7, align 1, !tbaa !51
  store i8 %8, ptr %4, align 1, !tbaa !51
  %9 = load i8, ptr %4, align 1, !tbaa !51
  %10 = zext i8 %9 to i32
  %11 = and i32 %10, 7
  switch i32 %11, label %40 [
    i32 0, label %12
    i32 1, label %17
    i32 2, label %23
    i32 3, label %29
    i32 4, label %35
  ]

12:                                               ; preds = %1
  %13 = load i8, ptr %4, align 1, !tbaa !51
  %14 = zext i8 %13 to i32
  %15 = ashr i32 %14, 3
  %16 = sext i32 %15 to i64
  store i64 %16, ptr %2, align 8
  store i32 1, ptr %5, align 4
  br label %41

17:                                               ; preds = %1
  %18 = load ptr, ptr %3, align 8, !tbaa !5
  %19 = getelementptr inbounds i8, ptr %18, i64 -3
  %20 = getelementptr inbounds nuw %struct.sdshdr8, ptr %19, i32 0, i32 0
  %21 = load i8, ptr %20, align 1, !tbaa !51
  %22 = zext i8 %21 to i64
  store i64 %22, ptr %2, align 8
  store i32 1, ptr %5, align 4
  br label %41

23:                                               ; preds = %1
  %24 = load ptr, ptr %3, align 8, !tbaa !5
  %25 = getelementptr inbounds i8, ptr %24, i64 -5
  %26 = getelementptr inbounds nuw %struct.sdshdr16, ptr %25, i32 0, i32 0
  %27 = load i16, ptr %26, align 1, !tbaa !54
  %28 = zext i16 %27 to i64
  store i64 %28, ptr %2, align 8
  store i32 1, ptr %5, align 4
  br label %41

29:                                               ; preds = %1
  %30 = load ptr, ptr %3, align 8, !tbaa !5
  %31 = getelementptr inbounds i8, ptr %30, i64 -9
  %32 = getelementptr inbounds nuw %struct.sdshdr32, ptr %31, i32 0, i32 0
  %33 = load i32, ptr %32, align 1, !tbaa !45
  %34 = zext i32 %33 to i64
  store i64 %34, ptr %2, align 8
  store i32 1, ptr %5, align 4
  br label %41

35:                                               ; preds = %1
  %36 = load ptr, ptr %3, align 8, !tbaa !5
  %37 = getelementptr inbounds i8, ptr %36, i64 -17
  %38 = getelementptr inbounds nuw %struct.sdshdr64, ptr %37, i32 0, i32 0
  %39 = load i64, ptr %38, align 1, !tbaa !10
  store i64 %39, ptr %2, align 8
  store i32 1, ptr %5, align 4
  br label %41

40:                                               ; preds = %1
  store i64 0, ptr %2, align 8
  store i32 1, ptr %5, align 4
  br label %41

41:                                               ; preds = %40, %35, %29, %23, %17, %12
  call void @llvm.lifetime.end.p0(i64 1, ptr %4) #10
  %42 = load i64, ptr %2, align 8
  ret i64 %42
}

; Function Attrs: nounwind uwtable
define dso_local void @setTypeReleaseIterator(ptr noundef %0) #0 {
  %2 = alloca ptr, align 8
  store ptr %0, ptr %2, align 8, !tbaa !47
  %3 = load ptr, ptr %2, align 8, !tbaa !47
  %4 = getelementptr inbounds nuw %struct.setTypeIterator, ptr %3, i32 0, i32 1
  %5 = load i32, ptr %4, align 8, !tbaa !59
  %6 = icmp eq i32 %5, 2
  br i1 %6, label %7, label %11

7:                                                ; preds = %1
  %8 = load ptr, ptr %2, align 8, !tbaa !47
  %9 = getelementptr inbounds nuw %struct.setTypeIterator, ptr %8, i32 0, i32 3
  %10 = load ptr, ptr %9, align 8, !tbaa !60
  call void @dictReleaseIterator(ptr noundef %10)
  br label %11

11:                                               ; preds = %7, %1
  %12 = load ptr, ptr %2, align 8, !tbaa !47
  call void @zfree(ptr noundef %12)
  ret void
}

; Function Attrs: nounwind uwtable
define dso_local i32 @setTypeAdd(ptr noundef %0, ptr noundef %1) #0 {
  %3 = alloca ptr, align 8
  %4 = alloca ptr, align 8
  store ptr %0, ptr %3, align 8, !tbaa !41
  store ptr %1, ptr %4, align 8, !tbaa !5
  %5 = load ptr, ptr %3, align 8, !tbaa !41
  %6 = load ptr, ptr %4, align 8, !tbaa !5
  %7 = load ptr, ptr %4, align 8, !tbaa !5
  %8 = call i64 @sdslen(ptr noundef %7)
  %9 = call i32 @setTypeAddAux(ptr noundef %5, ptr noundef %6, i64 noundef %8, i64 noundef 0, i32 noundef 1)
  ret i32 %9
}

; Function Attrs: nounwind uwtable
define dso_local ptr @setTypeInitIterator(ptr noundef %0) #0 {
  %2 = alloca ptr, align 8
  %3 = alloca ptr, align 8
  store ptr %0, ptr %2, align 8, !tbaa !41
  call void @llvm.lifetime.start.p0(i64 8, ptr %3) #10
  %4 = call noalias ptr @zmalloc(i64 noundef 32) #12
  store ptr %4, ptr %3, align 8, !tbaa !47
  %5 = load ptr, ptr %2, align 8, !tbaa !41
  %6 = load ptr, ptr %3, align 8, !tbaa !47
  %7 = getelementptr inbounds nuw %struct.setTypeIterator, ptr %6, i32 0, i32 0
  store ptr %5, ptr %7, align 8, !tbaa !56
  %8 = load ptr, ptr %2, align 8, !tbaa !41
  %9 = load i32, ptr %8, align 8
  %10 = lshr i32 %9, 4
  %11 = and i32 %10, 15
  %12 = load ptr, ptr %3, align 8, !tbaa !47
  %13 = getelementptr inbounds nuw %struct.setTypeIterator, ptr %12, i32 0, i32 1
  store i32 %11, ptr %13, align 8, !tbaa !59
  %14 = load ptr, ptr %3, align 8, !tbaa !47
  %15 = getelementptr inbounds nuw %struct.setTypeIterator, ptr %14, i32 0, i32 1
  %16 = load i32, ptr %15, align 8, !tbaa !59
  %17 = icmp eq i32 %16, 2
  br i1 %17, label %18, label %25

18:                                               ; preds = %1
  %19 = load ptr, ptr %2, align 8, !tbaa !41
  %20 = getelementptr inbounds nuw %struct.redisObject, ptr %19, i32 0, i32 2
  %21 = load ptr, ptr %20, align 8, !tbaa !43
  %22 = call ptr @dictGetIterator(ptr noundef %21)
  %23 = load ptr, ptr %3, align 8, !tbaa !47
  %24 = getelementptr inbounds nuw %struct.setTypeIterator, ptr %23, i32 0, i32 3
  store ptr %22, ptr %24, align 8, !tbaa !60
  br label %44

25:                                               ; preds = %1
  %26 = load ptr, ptr %3, align 8, !tbaa !47
  %27 = getelementptr inbounds nuw %struct.setTypeIterator, ptr %26, i32 0, i32 1
  %28 = load i32, ptr %27, align 8, !tbaa !59
  %29 = icmp eq i32 %28, 6
  br i1 %29, label %30, label %33

30:                                               ; preds = %25
  %31 = load ptr, ptr %3, align 8, !tbaa !47
  %32 = getelementptr inbounds nuw %struct.setTypeIterator, ptr %31, i32 0, i32 2
  store i32 0, ptr %32, align 4, !tbaa !61
  br label %43

33:                                               ; preds = %25
  %34 = load ptr, ptr %3, align 8, !tbaa !47
  %35 = getelementptr inbounds nuw %struct.setTypeIterator, ptr %34, i32 0, i32 1
  %36 = load i32, ptr %35, align 8, !tbaa !59
  %37 = icmp eq i32 %36, 11
  br i1 %37, label %38, label %41

38:                                               ; preds = %33
  %39 = load ptr, ptr %3, align 8, !tbaa !47
  %40 = getelementptr inbounds nuw %struct.setTypeIterator, ptr %39, i32 0, i32 4
  store ptr null, ptr %40, align 8, !tbaa !62
  br label %42

41:                                               ; preds = %33
  call void (ptr, i32, ptr, ...) @_serverPanic(ptr noundef @.str.1, i32 noundef 320, ptr noundef @.str.3)
  call void @abort() #11
  unreachable

42:                                               ; preds = %38
  br label %43

43:                                               ; preds = %42, %30
  br label %44

44:                                               ; preds = %43, %18
  %45 = load ptr, ptr %3, align 8, !tbaa !47
  call void @llvm.lifetime.end.p0(i64 8, ptr %3) #10
  ret ptr %45
}

; Function Attrs: nounwind uwtable
define dso_local ptr @setTypeDup(ptr noundef %0) #0 {
  %2 = alloca ptr, align 8
  %3 = alloca ptr, align 8
  %4 = alloca ptr, align 8
  %5 = alloca ptr, align 8
  %6 = alloca i64, align 8
  %7 = alloca ptr, align 8
  %8 = alloca ptr, align 8
  %9 = alloca i64, align 8
  %10 = alloca ptr, align 8
  %11 = alloca ptr, align 8
  %12 = alloca ptr, align 8
  %13 = alloca i64, align 8
  %14 = alloca i64, align 8
  store ptr %0, ptr %2, align 8, !tbaa !41
  call void @llvm.lifetime.start.p0(i64 8, ptr %3) #10
  call void @llvm.lifetime.start.p0(i64 8, ptr %4) #10
  %15 = load ptr, ptr %2, align 8, !tbaa !41
  %16 = load i32, ptr %15, align 8
  %17 = and i32 %16, 15
  %18 = icmp eq i32 %17, 2
  %19 = xor i1 %18, true
  %20 = xor i1 %19, true
  %21 = zext i1 %20 to i32
  %22 = sext i32 %21 to i64
  %23 = call i64 @llvm.expect.i64(i64 %22, i64 1)
  %24 = icmp ne i64 %23, 0
  br i1 %24, label %25, label %26

25:                                               ; preds = %1
  br label %28

26:                                               ; preds = %1
  call void @_serverAssert(ptr noundef @.str.8, ptr noundef @.str.1, i32 noundef 553)
  call void @abort() #11
  unreachable

27:                                               ; No predecessors!
  br label %28

28:                                               ; preds = %27, %25
  %29 = load ptr, ptr %2, align 8, !tbaa !41
  %30 = load i32, ptr %29, align 8
  %31 = lshr i32 %30, 4
  %32 = and i32 %31, 15
  %33 = icmp eq i32 %32, 6
  br i1 %33, label %34, label %51

34:                                               ; preds = %28
  call void @llvm.lifetime.start.p0(i64 8, ptr %5) #10
  %35 = load ptr, ptr %2, align 8, !tbaa !41
  %36 = getelementptr inbounds nuw %struct.redisObject, ptr %35, i32 0, i32 2
  %37 = load ptr, ptr %36, align 8, !tbaa !43
  store ptr %37, ptr %5, align 8, !tbaa !68
  call void @llvm.lifetime.start.p0(i64 8, ptr %6) #10
  %38 = load ptr, ptr %5, align 8, !tbaa !68
  %39 = call i64 @intsetBlobLen(ptr noundef %38)
  store i64 %39, ptr %6, align 8, !tbaa !10
  call void @llvm.lifetime.start.p0(i64 8, ptr %7) #10
  %40 = load i64, ptr %6, align 8, !tbaa !10
  %41 = call noalias ptr @zmalloc(i64 noundef %40) #12
  store ptr %41, ptr %7, align 8, !tbaa !68
  %42 = load ptr, ptr %7, align 8, !tbaa !68
  %43 = load ptr, ptr %5, align 8, !tbaa !68
  %44 = load i64, ptr %6, align 8, !tbaa !10
  call void @llvm.memcpy.p0.p0.i64(ptr align 4 %42, ptr align 4 %43, i64 %44, i1 false)
  %45 = load ptr, ptr %7, align 8, !tbaa !68
  %46 = call ptr @createObject(i32 noundef 2, ptr noundef %45)
  store ptr %46, ptr %3, align 8, !tbaa !41
  %47 = load ptr, ptr %3, align 8, !tbaa !41
  %48 = load i32, ptr %47, align 8
  %49 = and i32 %48, -241
  %50 = or i32 %49, 96
  store i32 %50, ptr %47, align 8
  call void @llvm.lifetime.end.p0(i64 8, ptr %7) #10
  call void @llvm.lifetime.end.p0(i64 8, ptr %6) #10
  call void @llvm.lifetime.end.p0(i64 8, ptr %5) #10
  br label %113

51:                                               ; preds = %28
  %52 = load ptr, ptr %2, align 8, !tbaa !41
  %53 = load i32, ptr %52, align 8
  %54 = lshr i32 %53, 4
  %55 = and i32 %54, 15
  %56 = icmp eq i32 %55, 11
  br i1 %56, label %57, label %74

57:                                               ; preds = %51
  call void @llvm.lifetime.start.p0(i64 8, ptr %8) #10
  %58 = load ptr, ptr %2, align 8, !tbaa !41
  %59 = getelementptr inbounds nuw %struct.redisObject, ptr %58, i32 0, i32 2
  %60 = load ptr, ptr %59, align 8, !tbaa !43
  store ptr %60, ptr %8, align 8, !tbaa !5
  call void @llvm.lifetime.start.p0(i64 8, ptr %9) #10
  %61 = load ptr, ptr %8, align 8, !tbaa !5
  %62 = call i64 @lpBytes(ptr noundef %61)
  store i64 %62, ptr %9, align 8, !tbaa !10
  call void @llvm.lifetime.start.p0(i64 8, ptr %10) #10
  %63 = load i64, ptr %9, align 8, !tbaa !10
  %64 = call noalias ptr @zmalloc(i64 noundef %63) #12
  store ptr %64, ptr %10, align 8, !tbaa !5
  %65 = load ptr, ptr %10, align 8, !tbaa !5
  %66 = load ptr, ptr %8, align 8, !tbaa !5
  %67 = load i64, ptr %9, align 8, !tbaa !10
  call void @llvm.memcpy.p0.p0.i64(ptr align 1 %65, ptr align 1 %66, i64 %67, i1 false)
  %68 = load ptr, ptr %10, align 8, !tbaa !5
  %69 = call ptr @createObject(i32 noundef 2, ptr noundef %68)
  store ptr %69, ptr %3, align 8, !tbaa !41
  %70 = load ptr, ptr %3, align 8, !tbaa !41
  %71 = load i32, ptr %70, align 8
  %72 = and i32 %71, -241
  %73 = or i32 %72, 176
  store i32 %73, ptr %70, align 8
  call void @llvm.lifetime.end.p0(i64 8, ptr %10) #10
  call void @llvm.lifetime.end.p0(i64 8, ptr %9) #10
  call void @llvm.lifetime.end.p0(i64 8, ptr %8) #10
  br label %112

74:                                               ; preds = %51
  %75 = load ptr, ptr %2, align 8, !tbaa !41
  %76 = load i32, ptr %75, align 8
  %77 = lshr i32 %76, 4
  %78 = and i32 %77, 15
  %79 = icmp eq i32 %78, 2
  br i1 %79, label %80, label %110

80:                                               ; preds = %74
  %81 = call ptr @createSetObject()
  store ptr %81, ptr %3, align 8, !tbaa !41
  call void @llvm.lifetime.start.p0(i64 8, ptr %11) #10
  %82 = load ptr, ptr %2, align 8, !tbaa !41
  %83 = getelementptr inbounds nuw %struct.redisObject, ptr %82, i32 0, i32 2
  %84 = load ptr, ptr %83, align 8, !tbaa !43
  store ptr %84, ptr %11, align 8, !tbaa !46
  %85 = load ptr, ptr %3, align 8, !tbaa !41
  %86 = getelementptr inbounds nuw %struct.redisObject, ptr %85, i32 0, i32 2
  %87 = load ptr, ptr %86, align 8, !tbaa !43
  %88 = load ptr, ptr %11, align 8, !tbaa !46
  %89 = getelementptr inbounds nuw %struct.dict, ptr %88, i32 0, i32 2
  %90 = getelementptr inbounds [2 x i64], ptr %89, i64 0, i64 0
  %91 = load i64, ptr %90, align 8, !tbaa !10
  %92 = load ptr, ptr %11, align 8, !tbaa !46
  %93 = getelementptr inbounds nuw %struct.dict, ptr %92, i32 0, i32 2
  %94 = getelementptr inbounds [2 x i64], ptr %93, i64 0, i64 1
  %95 = load i64, ptr %94, align 8, !tbaa !10
  %96 = add i64 %91, %95
  %97 = call i32 @dictExpand(ptr noundef %87, i64 noundef %96)
  %98 = load ptr, ptr %2, align 8, !tbaa !41
  %99 = call ptr @setTypeInitIterator(ptr noundef %98)
  store ptr %99, ptr %4, align 8, !tbaa !47
  call void @llvm.lifetime.start.p0(i64 8, ptr %12) #10
  call void @llvm.lifetime.start.p0(i64 8, ptr %13) #10
  call void @llvm.lifetime.start.p0(i64 8, ptr %14) #10
  br label %100

100:                                              ; preds = %104, %80
  %101 = load ptr, ptr %4, align 8, !tbaa !47
  %102 = call i32 @setTypeNext(ptr noundef %101, ptr noundef %12, ptr noundef %13, ptr noundef %14)
  %103 = icmp ne i32 %102, -1
  br i1 %103, label %104, label %108

104:                                              ; preds = %100
  %105 = load ptr, ptr %3, align 8, !tbaa !41
  %106 = load ptr, ptr %12, align 8, !tbaa !5
  %107 = call i32 @setTypeAdd(ptr noundef %105, ptr noundef %106)
  br label %100, !llvm.loop !70

108:                                              ; preds = %100
  %109 = load ptr, ptr %4, align 8, !tbaa !47
  call void @setTypeReleaseIterator(ptr noundef %109)
  call void @llvm.lifetime.end.p0(i64 8, ptr %14) #10
  call void @llvm.lifetime.end.p0(i64 8, ptr %13) #10
  call void @llvm.lifetime.end.p0(i64 8, ptr %12) #10
  call void @llvm.lifetime.end.p0(i64 8, ptr %11) #10
  br label %111

110:                                              ; preds = %74
  call void (ptr, i32, ptr, ...) @_serverPanic(ptr noundef @.str.1, i32 noundef 583, ptr noundef @.str.3)
  call void @abort() #11
  unreachable

111:                                              ; preds = %108
  br label %112

112:                                              ; preds = %111, %57
  br label %113

113:                                              ; preds = %112, %34
  %114 = load ptr, ptr %3, align 8, !tbaa !41
  call void @llvm.lifetime.end.p0(i64 8, ptr %4) #10
  call void @llvm.lifetime.end.p0(i64 8, ptr %3) #10
  ret ptr %114
}