; Function Attrs: nounwind uwtable
define dso_local ptr @setTypeDup(ptr noundef %0) local_unnamed_addr #0 {
  %2 = alloca ptr, align 8
  %3 = alloca i64, align 8
  %4 = alloca i64, align 8
  %5 = load i32, ptr %0, align 8
  %6 = and i32 %5, 15
  %7 = icmp eq i32 %6, 2
  br i1 %7, label %9, label %8, !prof !40

8:                                                ; preds = %1
  tail call void @_serverAssert(ptr noundef nonnull @.str.8, ptr noundef nonnull @.str.1, i32 noundef 553) #10
  tail call void @abort() #11
  unreachable

9:                                                ; preds = %1
  %10 = lshr i32 %5, 4
  %11 = and i32 %10, 15
  switch i32 %11, label %87 [
    i32 6, label %12
    i32 11, label %21
    i32 2, label %30
  ]

12:                                               ; preds = %9
  %13 = getelementptr inbounds nuw i8, ptr %0, i64 8
  %14 = load ptr, ptr %13, align 8, !tbaa !38
  %15 = tail call i64 @intsetBlobLen(ptr noundef %14) #10
  %16 = tail call noalias ptr @zmalloc(i64 noundef %15) #12
  tail call void @llvm.memcpy.p0.p0.i64(ptr align 4 %16, ptr align 4 %14, i64 %15, i1 false)
  %17 = tail call ptr @createObject(i32 noundef 2, ptr noundef %16) #10
  %18 = load i32, ptr %17, align 8
  %19 = and i32 %18, -241
  %20 = or disjoint i32 %19, 96
  store i32 %20, ptr %17, align 8
  br label %88

21:                                               ; preds = %9
  %22 = getelementptr inbounds nuw i8, ptr %0, i64 8
  %23 = load ptr, ptr %22, align 8, !tbaa !38
  %24 = tail call i64 @lpBytes(ptr noundef %23) #10
  %25 = tail call noalias ptr @zmalloc(i64 noundef %24) #12
  tail call void @llvm.memcpy.p0.p0.i64(ptr align 1 %25, ptr align 1 %23, i64 %24, i1 false)
  %26 = tail call ptr @createObject(i32 noundef 2, ptr noundef %25) #10
  %27 = load i32, ptr %26, align 8
  %28 = and i32 %27, -241
  %29 = or disjoint i32 %28, 176
  store i32 %29, ptr %26, align 8
  br label %88

30:                                               ; preds = %9
  %31 = tail call ptr @createSetObject() #10
  %32 = getelementptr inbounds nuw i8, ptr %0, i64 8
  %33 = load ptr, ptr %32, align 8, !tbaa !38
  %34 = getelementptr inbounds nuw i8, ptr %31, i64 8
  %35 = load ptr, ptr %34, align 8, !tbaa !38
  %36 = getelementptr inbounds nuw i8, ptr %33, i64 24
  %37 = load i64, ptr %36, align 8, !tbaa !50
  %38 = getelementptr inbounds nuw i8, ptr %33, i64 32
  %39 = load i64, ptr %38, align 8, !tbaa !50
  %40 = add i64 %39, %37
  %41 = tail call i32 @dictExpand(ptr noundef %35, i64 noundef %40) #10
  %42 = tail call noalias dereferenceable_or_null(32) ptr @zmalloc(i64 noundef 32) #12
  store ptr %0, ptr %42, align 8, !tbaa !41
  %43 = load i32, ptr %0, align 8
  %44 = lshr i32 %43, 4
  %45 = and i32 %44, 15
  %46 = getelementptr inbounds nuw i8, ptr %42, i64 8
  store i32 %45, ptr %46, align 8, !tbaa !45
  switch i32 %45, label %55 [
    i32 2, label %47
    i32 6, label %51
    i32 11, label %53
  ]

47:                                               ; preds = %30
  %48 = load ptr, ptr %32, align 8, !tbaa !38
  %49 = tail call ptr @dictGetIterator(ptr noundef %48) #10
  %50 = getelementptr inbounds nuw i8, ptr %42, i64 16
  store ptr %49, ptr %50, align 8, !tbaa !46
  br label %setTypeInitIterator.exit

51:                                               ; preds = %30
  %52 = getelementptr inbounds nuw i8, ptr %42, i64 12
  store i32 0, ptr %52, align 4, !tbaa !47
  br label %setTypeInitIterator.exit

53:                                               ; preds = %30
  %54 = getelementptr inbounds nuw i8, ptr %42, i64 24
  store ptr null, ptr %54, align 8, !tbaa !48
  br label %setTypeInitIterator.exit

55:                                               ; preds = %30
  tail call void (ptr, i32, ptr, ...) @_serverPanic(ptr noundef nonnull @.str.1, i32 noundef 320, ptr noundef nonnull @.str.3) #10
  tail call void @abort() #11
  unreachable

setTypeInitIterator.exit:                         ; preds = %47, %51, %53
  call void @llvm.lifetime.start.p0(i64 8, ptr nonnull %2) #10
  call void @llvm.lifetime.start.p0(i64 8, ptr nonnull %3) #10
  call void @llvm.lifetime.start.p0(i64 8, ptr nonnull %4) #10
  %56 = call i32 @setTypeNext(ptr noundef nonnull %42, ptr noundef nonnull %2, ptr noundef nonnull %3, ptr noundef nonnull %4)
  %.not29 = icmp eq i32 %56, -1
  br i1 %.not29, label %._crit_edge, label %.lr.ph

.lr.ph:                                           ; preds = %setTypeInitIterator.exit, %setTypeAdd.exit
  %57 = load ptr, ptr %2, align 8, !tbaa !49
  %58 = getelementptr inbounds i8, ptr %57, i64 -1
  %59 = load i8, ptr %58, align 1, !tbaa !54
  %60 = zext i8 %59 to i32
  %61 = and i32 %60, 7
  switch i32 %61, label %setTypeAdd.exit [
    i32 0, label %62
    i32 1, label %65
    i32 2, label %69
    i32 3, label %73
    i32 4, label %77
  ]

62:                                               ; preds = %.lr.ph
  %63 = lshr i32 %60, 3
  %64 = zext nneg i32 %63 to i64
  br label %setTypeAdd.exit

65:                                               ; preds = %.lr.ph
  %66 = getelementptr inbounds i8, ptr %57, i64 -3
  %67 = load i8, ptr %66, align 1, !tbaa !54
  %68 = zext i8 %67 to i64
  br label %setTypeAdd.exit

69:                                               ; preds = %.lr.ph
  %70 = getelementptr inbounds i8, ptr %57, i64 -5
  %71 = load i16, ptr %70, align 1, !tbaa !55
  %72 = zext i16 %71 to i64
  br label %setTypeAdd.exit

73:                                               ; preds = %.lr.ph
  %74 = getelementptr inbounds i8, ptr %57, i64 -9
  %75 = load i32, ptr %74, align 1, !tbaa !57
  %76 = zext i32 %75 to i64
  br label %setTypeAdd.exit

77:                                               ; preds = %.lr.ph
  %78 = getelementptr inbounds i8, ptr %57, i64 -17
  %79 = load i64, ptr %78, align 1, !tbaa !50
  br label %setTypeAdd.exit

setTypeAdd.exit:                                  ; preds = %.lr.ph, %62, %65, %69, %73, %77
  %.0.i.i = phi i64 [ %79, %77 ], [ %76, %73 ], [ %72, %69 ], [ %68, %65 ], [ %64, %62 ], [ 0, %.lr.ph ]
  %80 = call range(i32 0, 256) i32 @setTypeAddAux(ptr noundef %31, ptr noundef nonnull %57, i64 noundef %.0.i.i, i64 noundef 0, i32 noundef 1)
  %81 = call i32 @setTypeNext(ptr noundef nonnull %42, ptr noundef nonnull %2, ptr noundef nonnull %3, ptr noundef nonnull %4)
  %.not = icmp eq i32 %81, -1
  br i1 %.not, label %._crit_edge, label %.lr.ph, !llvm.loop !61

._crit_edge:                                      ; preds = %setTypeAdd.exit, %setTypeInitIterator.exit
  %82 = load i32, ptr %46, align 8, !tbaa !45
  %83 = icmp eq i32 %82, 2
  br i1 %83, label %84, label %setTypeReleaseIterator.exit

84:                                               ; preds = %._crit_edge
  %85 = getelementptr inbounds nuw i8, ptr %42, i64 16
  %86 = load ptr, ptr %85, align 8, !tbaa !46
  call void @dictReleaseIterator(ptr noundef %86) #10
  br label %setTypeReleaseIterator.exit

setTypeReleaseIterator.exit:                      ; preds = %._crit_edge, %84
  call void @zfree(ptr noundef nonnull %42) #10
  call void @llvm.lifetime.end.p0(i64 8, ptr nonnull %4) #10
  call void @llvm.lifetime.end.p0(i64 8, ptr nonnull %3) #10
  call void @llvm.lifetime.end.p0(i64 8, ptr nonnull %2) #10
  br label %88

87:                                               ; preds = %9
  tail call void (ptr, i32, ptr, ...) @_serverPanic(ptr noundef nonnull @.str.1, i32 noundef 583, ptr noundef nonnull @.str.3) #10
  tail call void @abort() #11
  unreachable

88:                                               ; preds = %21, %setTypeReleaseIterator.exit, %12
  %.0 = phi ptr [ %17, %12 ], [ %26, %21 ], [ %31, %setTypeReleaseIterator.exit ]
  ret ptr %.0
}